; Function Attrs: nounwind uwtable
define internal ptr @function_get_code(ptr readnone captures(none) %0, ptr noundef %1) #0 {
  %3 = tail call ptr @PyFunction_GetCode(ptr noundef %1) #3
  %.not = icmp eq ptr %3, null
  br i1 %.not, label %_Py_NewRef.exit, label %4

4:                                                ; preds = %2
  %5 = load i32, ptr %3, align 8, !tbaa !3
  %6 = icmp slt i32 %5, 0
  br i1 %6, label %_Py_NewRef.exit, label %7

7:                                                ; preds = %4
  %8 = add nuw i32 %5, 1
  store i32 %8, ptr %3, align 8, !tbaa !3
  br label %_Py_NewRef.exit

_Py_NewRef.exit:                                  ; preds = %7, %4, %2
  ret ptr %3
}